ccopy_reg
_reconstructor
p0
(csklearn.preprocessing._label
LabelEncoder
p1
c__builtin__
object
p2
Ntp3
Rp4
(dp5
Vclasses_
p6
cnumpy.core.multiarray
_reconstruct
p7
(cnumpy
ndarray
p8
(I0
tp9
c_codecs
encode
p10
(Vb
p11
Vlatin1
p12
tp13
Rp14
tp15
Rp16
(I1
(I5
tp17
cnumpy
dtype
p18
(VO8
p19
I0
I1
tp20
Rp21
(I3
V|
p22
NNNI-1
I-1
I63
tp23
bI00
(lp24
VA61
p25
aVA62
p26
aVA63
p27
aVA64
p28
aVA65
p29
atp30
bsV_sklearn_version
p31
V0.22.1
p32
sb.