ccopy_reg
_reconstructor
p0
(csklearn.preprocessing._label
LabelEncoder
p1
c__builtin__
object
p2
Ntp3
Rp4
(dp5
Vclasses_
p6
cnumpy.core.multiarray
_reconstruct
p7
(cnumpy
ndarray
p8
(L0L
tp9
c_codecs
encode
p10
(Vb
p11
Vlatin1
p12
tp13
Rp14
tp15
Rp16
(L1L
(L5L
tp17
cnumpy
dtype
p18
(VO8
p19
L0L
L1L
tp20
Rp21
(L3L
V|
p22
NNNL-1L
L-1L
L63L
tp23
bI00
(lp24
VA61
p25
aVA62
p26
aVA63
p27
aVA64
p28
aVA65
p29
atp30
bsV_sklearn_version
p31
V0.22
p32
sb.