ccopy_reg
_reconstructor
p0
(csklearn.preprocessing._encoders
OneHotEncoder
p1
c__builtin__
object
p2
Ntp3
Rp4
(dp5
Vcategories
p6
Vauto
p7
sVsparse
p8
I01
sVdtype
p9
Vint
p10
sVhandle_unknown
p11
Verror
p12
sVdrop
p13
NsVcategories_
p14
(lp15
cnumpy.core.multiarray
_reconstruct
p16
(cnumpy
ndarray
p17
(L0L
tp18
c_codecs
encode
p19
(Vb
p20
Vlatin1
p21
tp22
Rp23
tp24
Rp25
(L1L
(L6L
tp26
cnumpy
dtype
p27
(VO8
p28
L0L
L1L
tp29
Rp30
(L3L
V|
p31
NNNL-1L
L-1L
L63L
tp32
bI00
(lp33
VA30
p34
aVA31
p35
aVA32
p36
aVA33
p37
aVA34
p38
aVNA
p39
atp40
bag16
(g17
(L0L
tp41
g23
tp42
Rp43
(L1L
(L10L
tp44
g30
I00
(lp45
VA40
p46
aVA41
p47
aVA410
p48
aVA42
p49
aVA43
p50
aVA44
p51
aVA45
p52
aVA46
p53
aVA48
p54
aVA49
p55
atp56
bag16
(g17
(L0L
tp57
g23
tp58
Rp59
(L1L
(L4L
tp60
g30
I00
(lp61
VA91
p62
aVA92
p63
aVA93
p64
aVA94
p65
atp66
bag16
(g17
(L0L
tp67
g23
tp68
Rp69
(L1L
(L3L
tp70
g30
I00
(lp71
VA101
p72
aVA102
p73
aVA103
p74
atp75
bag16
(g17
(L0L
tp76
g23
tp77
Rp78
(L1L
(L3L
tp79
g30
I00
(lp80
VA141
p81
aVA142
p82
aVA143
p83
atp84
bag16
(g17
(L0L
tp85
g23
tp86
Rp87
(L1L
(L3L
tp88
g30
I00
(lp89
VA151
p90
aVA152
p91
aVA153
p92
atp93
bag16
(g17
(L0L
tp94
g23
tp95
Rp96
(L1L
(L4L
tp97
g30
I00
(lp98
VA171
p99
aVA172
p100
aVA173
p101
aVA174
p102
atp103
bag16
(g17
(L0L
tp104
g23
tp105
Rp106
(L1L
(L2L
tp107
g30
I00
(lp108
VA191
p109
aVA192
p110
atp111
bag16
(g17
(L0L
tp112
g23
tp113
Rp114
(L1L
(L2L
tp115
g30
I00
(lp116
VA201
p117
aVA202
p118
atp119
basVdrop_idx_
p120
NsV_sklearn_version
p121
V0.22
p122
sb.