ccopy_reg
_reconstructor
p0
(csklearn.preprocessing._encoders
OneHotEncoder
p1
c__builtin__
object
p2
Ntp3
Rp4
(dp5
Vcategories
p6
NsVsparse
p7
I01
sVdtype
p8
Vint
p9
sVhandle_unknown
p10
Verror
p11
sVn_values
p12
NsVcategorical_features
p13
NsVdrop
p14
NsV_n_values
p15
Vauto
p16
sV_categories
p17
g16
sV_categorical_features
p18
Vall
p19
sV_legacy_mode
p20
I00
sVcategories_
p21
(lp22
cnumpy.core.multiarray
_reconstruct
p23
(cnumpy
ndarray
p24
(L0L
tp25
c_codecs
encode
p26
(Vb
p27
Vlatin1
p28
tp29
Rp30
tp31
Rp32
(L1L
(L6L
tp33
cnumpy
dtype
p34
(VO8
p35
L0L
L1L
tp36
Rp37
(L3L
V|
p38
NNNL-1L
L-1L
L63L
tp39
bI00
(lp40
VA30
p41
aVA31
p42
aVA32
p43
aVA33
p44
aVA34
p45
aVNA
p46
atp47
bag23
(g24
(L0L
tp48
g30
tp49
Rp50
(L1L
(L10L
tp51
g37
I00
(lp52
VA40
p53
aVA41
p54
aVA410
p55
aVA42
p56
aVA43
p57
aVA44
p58
aVA45
p59
aVA46
p60
aVA48
p61
aVA49
p62
atp63
bag23
(g24
(L0L
tp64
g30
tp65
Rp66
(L1L
(L4L
tp67
g37
I00
(lp68
VA91
p69
aVA92
p70
aVA93
p71
aVA94
p72
atp73
bag23
(g24
(L0L
tp74
g30
tp75
Rp76
(L1L
(L3L
tp77
g37
I00
(lp78
VA101
p79
aVA102
p80
aVA103
p81
atp82
bag23
(g24
(L0L
tp83
g30
tp84
Rp85
(L1L
(L3L
tp86
g37
I00
(lp87
VA141
p88
aVA142
p89
aVA143
p90
atp91
bag23
(g24
(L0L
tp92
g30
tp93
Rp94
(L1L
(L3L
tp95
g37
I00
(lp96
VA151
p97
aVA152
p98
aVA153
p99
atp100
bag23
(g24
(L0L
tp101
g30
tp102
Rp103
(L1L
(L4L
tp104
g37
I00
(lp105
VA171
p106
aVA172
p107
aVA173
p108
aVA174
p109
atp110
bag23
(g24
(L0L
tp111
g30
tp112
Rp113
(L1L
(L2L
tp114
g37
I00
(lp115
VA191
p116
aVA192
p117
atp118
bag23
(g24
(L0L
tp119
g30
tp120
Rp121
(L1L
(L2L
tp122
g37
I00
(lp123
VA201
p124
aVA202
p125
atp126
basVdrop_idx_
p127
NsV_sklearn_version
p128
V0.21.2
p129
sb.